; ModuleID = '10/1749.c'
source_filename = "10/1749.c"
target datalayout = "e-m:e-p270:32:32-p271:32:32-p272:64:64-i64:64-f80:128-n8:16:32:64-S128"
target triple = "x86_64-pc-linux-gnu"

@.str = private unnamed_addr constant [3 x i8] c"%d\00", align 1

; Function Attrs: noinline nounwind uwtable
define dso_local i32 @compare(i32 %0, i32 %1) #0 {
  %3 = alloca i32, align 4
  %4 = alloca i32, align 4
  store i32 %0, i32* %3, align 4
  store i32 %1, i32* %4, align 4
  %5 = load i32, i32* %3, align 4
  %6 = load i32, i32* %4, align 4
  %7 = icmp sle i32 %5, %6
  br i1 %7, label %8, label %11

8:                                                ; preds = %2
  %9 = load i32, i32* %4, align 4
  %10 = add nsw i32 %9, 1
  store i32 %10, i32* %3, align 4
  br label %11

11:                                               ; preds = %8, %2
  %12 = load i32, i32* %3, align 4
  ret i32 %12
}

; Function Attrs: noinline nounwind uwtable
define dso_local i32 @main() #0 {
  %1 = alloca i32, align 4
  %2 = alloca i32, align 4
  %3 = alloca i32, align 4
  %4 = alloca i32, align 4
  %5 = alloca i32, align 4
  %6 = alloca i32, align 4
  %7 = alloca i32*, align 8
  %8 = alloca i32*, align 8
  %9 = alloca i32, align 4
  store i32 0, i32* %1, align 4
  %10 = call i32 (i8*, ...) @__isoc99_scanf(i8* getelementptr inbounds ([3 x i8], [3 x i8]* @.str, i64 0, i64 0), i32* %3)
  %11 = load i32, i32* %3, align 4
  %12 = sext i32 %11 to i64
  %13 = mul i64 %12, 4
  %14 = call noalias i8* @malloc(i64 %13) #3
  %15 = bitcast i8* %14 to i32*
  store i32* %15, i32** %7, align 8
  store i32 0, i32* %2, align 4
  br label %16

16:                                               ; preds = %26, %0
  %17 = load i32, i32* %2, align 4
  %18 = load i32, i32* %3, align 4
  %19 = icmp slt i32 %17, %18
  br i1 %19, label %20, label %29

20:                                               ; preds = %16
  %21 = load i32*, i32** %7, align 8
  %22 = load i32, i32* %2, align 4
  %23 = sext i32 %22 to i64
  %24 = getelementptr inbounds i32, i32* %21, i64 %23
  %25 = call i32 (i8*, ...) @__isoc99_scanf(i8* getelementptr inbounds ([3 x i8], [3 x i8]* @.str, i64 0, i64 0), i32* %24)
  br label %26

26:                                               ; preds = %20
  %27 = load i32, i32* %2, align 4
  %28 = add nsw i32 %27, 1
  store i32 %28, i32* %2, align 4
  br label %16

29:                                               ; preds = %16
  %30 = load i32, i32* %3, align 4
  %31 = sext i32 %30 to i64
  %32 = mul i64 %31, 4
  %33 = call noalias i8* @malloc(i64 %32) #3
  %34 = bitcast i8* %33 to i32*
  store i32* %34, i32** %8, align 8
  %35 = load i32, i32* %3, align 4
  %36 = sub nsw i32 %35, 1
  store i32 %36, i32* %6, align 4
  br label %37

37:                                               ; preds = %84, %29
  %38 = load i32, i32* %6, align 4
  %39 = icmp sge i32 %38, 0
  br i1 %39, label %40, label %87

40:                                               ; preds = %37
  %41 = load i32*, i32** %8, align 8
  %42 = load i32, i32* %6, align 4
  %43 = sext i32 %42 to i64
  %44 = getelementptr inbounds i32, i32* %41, i64 %43
  store i32 1, i32* %44, align 4
  %45 = load i32, i32* %3, align 4
  %46 = sub nsw i32 %45, 1
  store i32 %46, i32* %4, align 4
  br label %47

47:                                               ; preds = %80, %40
  %48 = load i32, i32* %4, align 4
  %49 = load i32, i32* %6, align 4
  %50 = icmp ne i32 %48, %49
  br i1 %50, label %51, label %83

51:                                               ; preds = %47
  %52 = load i32*, i32** %7, align 8
  %53 = load i32, i32* %6, align 4
  %54 = sext i32 %53 to i64
  %55 = getelementptr inbounds i32, i32* %52, i64 %54
  %56 = load i32, i32* %55, align 4
  %57 = load i32*, i32** %7, align 8
  %58 = load i32, i32* %4, align 4
  %59 = sext i32 %58 to i64
  %60 = getelementptr inbounds i32, i32* %57, i64 %59
  %61 = load i32, i32* %60, align 4
  %62 = icmp sge i32 %56, %61
  br i1 %62, label %63, label %79

63:                                               ; preds = %51
  %64 = load i32*, i32** %8, align 8
  %65 = load i32, i32* %6, align 4
  %66 = sext i32 %65 to i64
  %67 = getelementptr inbounds i32, i32* %64, i64 %66
  %68 = load i32, i32* %67, align 4
  %69 = load i32*, i32** %8, align 8
  %70 = load i32, i32* %4, align 4
  %71 = sext i32 %70 to i64
  %72 = getelementptr inbounds i32, i32* %69, i64 %71
  %73 = load i32, i32* %72, align 4
  %74 = call i32 @compare(i32 %68, i32 %73)
  %75 = load i32*, i32** %8, align 8
  %76 = load i32, i32* %6, align 4
  %77 = sext i32 %76 to i64
  %78 = getelementptr inbounds i32, i32* %75, i64 %77
  store i32 %74, i32* %78, align 4
  br label %79

79:                                               ; preds = %63, %51
  br label %80

80:                                               ; preds = %79
  %81 = load i32, i32* %4, align 4
  %82 = add nsw i32 %81, -1
  store i32 %82, i32* %4, align 4
  br label %47

83:                                               ; preds = %47
  br label %84

84:                                               ; preds = %83
  %85 = load i32, i32* %6, align 4
  %86 = add nsw i32 %85, -1
  store i32 %86, i32* %6, align 4
  br label %37

87:                                               ; preds = %37
  %88 = load i32*, i32** %8, align 8
  %89 = getelementptr inbounds i32, i32* %88, i64 0
  %90 = load i32, i32* %89, align 4
  store i32 %90, i32* %9, align 4
  store i32 1, i32* %5, align 4
  br label %91

91:                                               ; preds = %110, %87
  %92 = load i32, i32* %5, align 4
  %93 = load i32, i32* %3, align 4
  %94 = icmp slt i32 %92, %93
  br i1 %94, label %95, label %113

95:                                               ; preds = %91
  %96 = load i32*, i32** %8, align 8
  %97 = load i32, i32* %5, align 4
  %98 = sext i32 %97 to i64
  %99 = getelementptr inbounds i32, i32* %96, i64 %98
  %100 = load i32, i32* %99, align 4
  %101 = load i32, i32* %9, align 4
  %102 = icmp sgt i32 %100, %101
  br i1 %102, label %103, label %109

103:                                              ; preds = %95
  %104 = load i32*, i32** %8, align 8
  %105 = load i32, i32* %5, align 4
  %106 = sext i32 %105 to i64
  %107 = getelementptr inbounds i32, i32* %104, i64 %106
  %108 = load i32, i32* %107, align 4
  store i32 %108, i32* %9, align 4
  br label %109

109:                                              ; preds = %103, %95
  br label %110

110:                                              ; preds = %109
  %111 = load i32, i32* %5, align 4
  %112 = add nsw i32 %111, 1
  store i32 %112, i32* %5, align 4
  br label %91

113:                                              ; preds = %91
  %114 = load i32, i32* %9, align 4
  %115 = call i32 (i8*, ...) @printf(i8* getelementptr inbounds ([3 x i8], [3 x i8]* @.str, i64 0, i64 0), i32 %114)
  ret i32 0
}

declare dso_local i32 @__isoc99_scanf(i8*, ...) #1

; Function Attrs: nounwind
declare dso_local noalias i8* @malloc(i64) #2

declare dso_local i32 @printf(i8*, ...) #1


!llvm.module.flags = !{!0}
!llvm.ident = !{!1}

!0 = !{i32 1, !"wchar_size", i32 4}
!1 = !{!"clang version 10.0.0-4ubuntu1 "}
